; Function Attrs: mustprogress uwtable
define void @_ZNK6casadi9Transpose10ad_forwardERKSt6vectorIS1_INS_2MXESaIS2_EESaIS4_EERS6_(ptr nonnull readnone align 8 captures(none) %0, ptr noundef nonnull readonly align 8 captures(none) dereferenceable(24) %1, ptr noundef nonnull readonly align 8 captures(none) dereferenceable(24) %2) unnamed_addr #3 align 2 personality ptr @__gxx_personality_v0 {
  %4 = alloca %"class.casadi::MX", align 8
  %5 = getelementptr inbounds nuw i8, ptr %2, i64 8
  %6 = load ptr, ptr %5, align 8, !tbaa !82
  %7 = load ptr, ptr %2, align 8, !tbaa !85
  %.not = icmp eq ptr %6, %7
  br i1 %.not, label %._crit_edge, label %.lr.ph

._crit_edge:                                      ; preds = %_ZN6casadi2MXaSERKS0_.exit, %3
  ret void

.lr.ph:                                           ; preds = %3, %_ZN6casadi2MXaSERKS0_.exit
  %.08 = phi i64 [ %15, %_ZN6casadi2MXaSERKS0_.exit ], [ 0, %3 ]
  call void @llvm.lifetime.start.p0(i64 8, ptr nonnull %4) #21
  %8 = load ptr, ptr %1, align 8, !tbaa !85
  %9 = getelementptr inbounds nuw %"class.std::vector", ptr %8, i64 %.08
  %10 = load ptr, ptr %9, align 8, !tbaa !47
  call void @_ZNK6casadi2MX1TEv(ptr dead_on_unwind nonnull writable sret(%"class.casadi::MX") align 8 %4, ptr noundef nonnull align 8 dereferenceable(8) %10)
  %11 = load ptr, ptr %2, align 8, !tbaa !85
  %12 = getelementptr inbounds nuw %"class.std::vector", ptr %11, i64 %.08
  %13 = load ptr, ptr %12, align 8, !tbaa !47
  %14 = invoke noundef nonnull align 8 dereferenceable(8) ptr @_ZN6casadi13GenericSharedINS_12SharedObjectENS_20SharedObjectInternalEEaSERKS3_(ptr noundef nonnull align 8 dereferenceable(8) %13, ptr noundef nonnull align 8 dereferenceable(8) %4)
          to label %_ZN6casadi2MXaSERKS0_.exit unwind label %23

_ZN6casadi2MXaSERKS0_.exit:                       ; preds = %.lr.ph
  call void @_ZN6casadi2MXD1Ev(ptr noundef nonnull align 8 dereferenceable(8) %4) #21
  call void @llvm.lifetime.end.p0(i64 8, ptr nonnull %4) #21
  %15 = add nuw nsw i64 %.08, 1
  %16 = load ptr, ptr %5, align 8, !tbaa !82
  %17 = load ptr, ptr %2, align 8, !tbaa !85
  %18 = ptrtoint ptr %16 to i64
  %19 = ptrtoint ptr %17 to i64
  %20 = sub i64 %18, %19
  %21 = sdiv exact i64 %20, 24
  %22 = icmp ult i64 %15, %21
  br i1 %22, label %.lr.ph, label %._crit_edge, !llvm.loop !86

23:                                               ; preds = %.lr.ph
  %24 = landingpad { ptr, i32 }
          cleanup
  call void @_ZN6casadi2MXD1Ev(ptr noundef nonnull align 8 dereferenceable(8) %4) #21
  call void @llvm.lifetime.end.p0(i64 8, ptr nonnull %4) #21
  resume { ptr, i32 } %24
}